target datalayout = "e-m:e-p270:32:32-p271:32:32-p272:64:64-i64:64-i128:128-f80:128-n8:16:32:64-S128"
target triple = "x86_64-pc-linux-gnu"

%struct.NodeDist = type { i32, i32, i32, i32, ptr, ptr }

; Function Attrs: nounwind uwtable
define internal i32 @stPathTableDdFree(ptr noundef %0, ptr noundef %1, ptr noundef %2) #0 {
  %4 = alloca ptr, align 8
  %5 = alloca ptr, align 8
  %6 = alloca ptr, align 8
  %7 = alloca ptr, align 8
  %8 = alloca ptr, align 8
  store ptr %0, ptr %4, align 8, !tbaa !77
  store ptr %1, ptr %5, align 8, !tbaa !77
  store ptr %2, ptr %6, align 8, !tbaa !77
  call void @llvm.lifetime.start.p0(i64 8, ptr %7) #5
  call void @llvm.lifetime.start.p0(i64 8, ptr %8) #5
  %9 = load ptr, ptr %5, align 8, !tbaa !77
  store ptr %9, ptr %7, align 8, !tbaa !46
  %10 = load ptr, ptr %6, align 8, !tbaa !77
  store ptr %10, ptr %8, align 8, !tbaa !3
  %11 = load ptr, ptr %7, align 8, !tbaa !46
  %12 = getelementptr inbounds nuw %struct.NodeDist, ptr %11, i32 0, i32 4
  %13 = load ptr, ptr %12, align 8, !tbaa !66
  %14 = icmp ne ptr %13, null
  br i1 %14, label %15, label %20

15:                                               ; preds = %3
  %16 = load ptr, ptr %8, align 8, !tbaa !3
  %17 = load ptr, ptr %7, align 8, !tbaa !46
  %18 = getelementptr inbounds nuw %struct.NodeDist, ptr %17, i32 0, i32 4
  %19 = load ptr, ptr %18, align 8, !tbaa !66
  call void @Cudd_RecursiveDeref(ptr noundef %16, ptr noundef %19)
  br label %20

20:                                               ; preds = %15, %3
  %21 = load ptr, ptr %7, align 8, !tbaa !46
  %22 = getelementptr inbounds nuw %struct.NodeDist, ptr %21, i32 0, i32 5
  %23 = load ptr, ptr %22, align 8, !tbaa !67
  %24 = icmp ne ptr %23, null
  br i1 %24, label %25, label %30

25:                                               ; preds = %20
  %26 = load ptr, ptr %8, align 8, !tbaa !3
  %27 = load ptr, ptr %7, align 8, !tbaa !46
  %28 = getelementptr inbounds nuw %struct.NodeDist, ptr %27, i32 0, i32 5
  %29 = load ptr, ptr %28, align 8, !tbaa !67
  call void @Cudd_RecursiveDeref(ptr noundef %26, ptr noundef %29)
  br label %30

30:                                               ; preds = %25, %20
  call void @llvm.lifetime.end.p0(i64 8, ptr %8) #5
  call void @llvm.lifetime.end.p0(i64 8, ptr %7) #5
  ret i32 0
}