; Function Attrs: nounwind uwtable
define internal noundef i32 @stPathTableDdFree(ptr readnone captures(none) %0, ptr noundef readonly captures(none) %1, ptr noundef %2) #0 {
  %4 = getelementptr inbounds nuw i8, ptr %1, i64 16
  %5 = load ptr, ptr %4, align 8, !tbaa !59
  %.not = icmp eq ptr %5, null
  br i1 %.not, label %7, label %6

6:                                                ; preds = %3
  tail call void @Cudd_RecursiveDeref(ptr noundef %2, ptr noundef nonnull %5) #9
  br label %7

7:                                                ; preds = %6, %3
  %8 = getelementptr inbounds nuw i8, ptr %1, i64 24
  %9 = load ptr, ptr %8, align 8, !tbaa !58
  %.not9 = icmp eq ptr %9, null
  br i1 %.not9, label %11, label %10

10:                                               ; preds = %7
  tail call void @Cudd_RecursiveDeref(ptr noundef %2, ptr noundef nonnull %9) #9
  br label %11

11:                                               ; preds = %10, %7
  ret i32 0
}